target datalayout = "e-m:e-p270:32:32-p271:32:32-p272:64:64-i64:64-i128:128-f80:128-n8:16:32:64-S128"
target triple = "x86_64-pc-linux-gnu"

%struct.jpeg_decompress_struct = type { ptr, ptr, ptr, ptr, i32, i32, ptr, i32, i32, i32, i32, i32, i32, i32, double, i32, i32, i32, i32, i32, i32, i32, i32, i32, i32, i32, i32, i32, i32, i32, i32, i32, i32, ptr, i32, i32, i32, i32, i32, ptr, [4 x ptr], [4 x ptr], [4 x ptr], i32, ptr, i32, i32, [16 x i8], [16 x i8], [16 x i8], i32, i32, i8, i8, i8, i16, i16, i32, i8, i32, ptr, i32, i32, i32, i32, ptr, i32, [4 x ptr], i32, i32, i32, [10 x i32], i32, i32, i32, i32, i32, ptr, ptr, ptr, ptr, ptr, ptr, ptr, ptr, ptr, ptr, ptr }
%struct.jpeg_memory_mgr = type { ptr, ptr, ptr, ptr, ptr, ptr, ptr, ptr, ptr, ptr, ptr, i64, i64 }
%struct.my_color_deconverter = type { %struct.jpeg_color_deconverter, ptr, ptr, ptr, ptr, ptr }
%struct.jpeg_color_deconverter = type { ptr, ptr, ptr, ptr }

; Function Attrs: nounwind uwtable
define internal void @build_rgb_y_table(ptr noundef %0) #0 {
  %2 = alloca ptr, align 8
  %3 = alloca ptr, align 8
  %4 = alloca ptr, align 8
  %5 = alloca i64, align 8
  store ptr %0, ptr %2, align 8
  %6 = load ptr, ptr %2, align 8
  %7 = getelementptr inbounds %struct.jpeg_decompress_struct, ptr %6, i32 0, i32 86
  %8 = load ptr, ptr %7, align 8
  store ptr %8, ptr %3, align 8
  %9 = load ptr, ptr %2, align 8
  %10 = getelementptr inbounds %struct.jpeg_decompress_struct, ptr %9, i32 0, i32 1
  %11 = load ptr, ptr %10, align 8
  %12 = getelementptr inbounds %struct.jpeg_memory_mgr, ptr %11, i32 0, i32 0
  %13 = load ptr, ptr %12, align 8
  %14 = load ptr, ptr %2, align 8
  %15 = call ptr %13(ptr noundef %14, i32 noundef 1, i64 noundef 6144)
  store ptr %15, ptr %4, align 8
  %16 = load ptr, ptr %3, align 8
  %17 = getelementptr inbounds %struct.my_color_deconverter, ptr %16, i32 0, i32 5
  store ptr %15, ptr %17, align 8
  store i64 0, ptr %5, align 8
  br label %18

18:                                               ; preds = %41, %1
  %19 = load i64, ptr %5, align 8
  %20 = icmp sle i64 %19, 255
  br i1 %20, label %21, label %44

21:                                               ; preds = %18
  %22 = load i64, ptr %5, align 8
  %23 = mul nsw i64 19595, %22
  %24 = load ptr, ptr %4, align 8
  %25 = load i64, ptr %5, align 8
  %26 = add nsw i64 %25, 0
  %27 = getelementptr inbounds i64, ptr %24, i64 %26
  store i64 %23, ptr %27, align 8
  %28 = load i64, ptr %5, align 8
  %29 = mul nsw i64 38470, %28
  %30 = load ptr, ptr %4, align 8
  %31 = load i64, ptr %5, align 8
  %32 = add nsw i64 %31, 256
  %33 = getelementptr inbounds i64, ptr %30, i64 %32
  store i64 %29, ptr %33, align 8
  %34 = load i64, ptr %5, align 8
  %35 = mul nsw i64 7471, %34
  %36 = add nsw i64 %35, 32768
  %37 = load ptr, ptr %4, align 8
  %38 = load i64, ptr %5, align 8
  %39 = add nsw i64 %38, 512
  %40 = getelementptr inbounds i64, ptr %37, i64 %39
  store i64 %36, ptr %40, align 8
  br label %41

41:                                               ; preds = %21
  %42 = load i64, ptr %5, align 8
  %43 = add nsw i64 %42, 1
  store i64 %43, ptr %5, align 8
  br label %18, !llvm.loop !8

44:                                               ; preds = %18
  ret void
}