; Function Attrs: nounwind uwtable
define internal fastcc void @build_rgb_y_table(ptr noundef %0) unnamed_addr #0 {
  %2 = getelementptr inbounds i8, ptr %0, i64 616
  %3 = load ptr, ptr %2, align 8
  %4 = getelementptr inbounds i8, ptr %0, i64 8
  %5 = load ptr, ptr %4, align 8
  %6 = load ptr, ptr %5, align 8
  %7 = tail call ptr %6(ptr noundef %0, i32 noundef 1, i64 noundef 6144) #4
  %8 = getelementptr inbounds i8, ptr %3, i64 64
  store ptr %7, ptr %8, align 8
  br label %9

9:                                                ; preds = %1, %9
  %.014 = phi i64 [ 0, %1 ], [ %19, %9 ]
  %10 = mul nuw nsw i64 %.014, 19595
  %11 = getelementptr inbounds i64, ptr %7, i64 %.014
  store i64 %10, ptr %11, align 8
  %12 = mul nuw nsw i64 %.014, 38470
  %13 = or disjoint i64 %.014, 256
  %14 = getelementptr inbounds i64, ptr %7, i64 %13
  store i64 %12, ptr %14, align 8
  %15 = mul nuw nsw i64 %.014, 7471
  %16 = add nuw nsw i64 %15, 32768
  %17 = or disjoint i64 %.014, 512
  %18 = getelementptr inbounds i64, ptr %7, i64 %17
  store i64 %16, ptr %18, align 8
  %19 = add nuw nsw i64 %.014, 1
  %exitcond.not = icmp eq i64 %19, 256
  br i1 %exitcond.not, label %20, label %9, !llvm.loop !9

20:                                               ; preds = %9
  ret void
}